target datalayout = "e-m:e-p270:32:32-p271:32:32-p272:64:64-i64:64-i128:128-f80:128-n8:16:32:64-S128"
target triple = "x86_64-unknown-linux-gnu"

%"class.net::QuicTime" = type { i64 }
%"class.net::QuicConnection" = type <{ %"class.net::QuicFramerVisitorInterface", %"class.net::QuicBlockedWriterInterface", %"class.net::QuicPacketGenerator::DelegateInterface", %"class.net::QuicSentPacketManagerInterface::NetworkChangeVisitor", %"class.net::QuicFramer", ptr, ptr, ptr, ptr, i8, i8, [6 x i8], ptr, ptr, i64, %"class.net::IPEndPoint", %"class.net::IPEndPoint", i32, [4 x i8], i64, i8, [7 x i8], i64, ptr, i8, [7 x i8], %"struct.net::QuicPacketHeader", %"struct.net::QuicStopWaitingFrame", i8, [7 x i8], i64, i64, %"class.std::deque", i64, i8, [7 x i8], %"class.std::__cxx11::list", i8, [7 x i8], %"class.std::unique_ptr.42", i32, i8, [3 x i8], %"class.net::QuicReceivedPacketManager", %"class.net::QuicSentEntropyManager", i8, [7 x i8], i64, i8, [7 x i8], i64, i32, i32, float, i8, i8, i8, i8, %"class.net::QuicTime::Delta", %"class.net::QuicOneBlockArena", %"class.net::QuicArenaScopedPtr", %"class.net::QuicArenaScopedPtr", %"class.net::QuicArenaScopedPtr", %"class.net::QuicArenaScopedPtr", %"class.net::QuicArenaScopedPtr", %"class.net::QuicArenaScopedPtr", %"class.net::QuicArenaScopedPtr", ptr, ptr, %"class.net::QuicPacketGenerator", %"class.net::QuicTime::Delta", %"class.net::QuicTime::Delta", %"struct.net::QuicConnectionStats", %"class.net::QuicTime", %"class.net::QuicTime", %"class.net::QuicTime", i64, %"class.std::unique_ptr.77", i32, i32, i8, [7 x i8], %"class.net::IPEndPoint", %"class.net::IPEndPoint", i8, [7 x i8], %"class.std::vector.21", i64, i64, i64, i64, i64, i64, i64, i8, i8, i8, i8, [4 x i8] }>
%"class.net::QuicFramerVisitorInterface" = type { ptr }
%"class.net::QuicBlockedWriterInterface" = type { ptr }
%"class.net::QuicPacketGenerator::DelegateInterface" = type { %"class.net::QuicPacketCreator::DelegateInterface" }
%"class.net::QuicPacketCreator::DelegateInterface" = type { %"class.net::QuicConnectionCloseDelegateInterface" }
%"class.net::QuicConnectionCloseDelegateInterface" = type { ptr }
%"class.net::QuicSentPacketManagerInterface::NetworkChangeVisitor" = type { ptr }
%"class.net::QuicFramer" = type { ptr, %"class.std::__cxx11::basic_string", ptr, ptr, i32, %"class.std::unordered_set", %"class.std::unordered_map", i64, %"class.std::unordered_map", i64, i8, i64, i32, i32, %"class.std::vector.21", %"class.std::unique_ptr", %"class.std::unique_ptr", i8, i8, i8, [3 x %"class.std::unique_ptr.28"], i32, i8, %"class.net::QuicTime", %"class.net::QuicTime::Delta", %"struct.std::array" }
%"class.std::__cxx11::basic_string" = type { %"struct.std::__cxx11::basic_string<char>::_Alloc_hider", i64, %union.anon }
%"struct.std::__cxx11::basic_string<char>::_Alloc_hider" = type { ptr }
%union.anon = type { i64, [8 x i8] }
%"class.std::unordered_set" = type { %"class.std::_Hashtable" }
%"class.std::_Hashtable" = type { ptr, i64, %"struct.std::__detail::_Hash_node_base", i64, %"struct.std::__detail::_Prime_rehash_policy", ptr }
%"struct.std::__detail::_Hash_node_base" = type { ptr }
%"struct.std::__detail::_Prime_rehash_policy" = type { float, i64 }
%"class.std::unordered_map" = type { %"class.std::_Hashtable.8" }
%"class.std::_Hashtable.8" = type { ptr, i64, %"struct.std::__detail::_Hash_node_base", i64, %"struct.std::__detail::_Prime_rehash_policy", ptr }
%"class.std::unique_ptr" = type { %"struct.std::__uniq_ptr_data" }
%"struct.std::__uniq_ptr_data" = type { %"class.std::__uniq_ptr_impl" }
%"class.std::__uniq_ptr_impl" = type { %"class.std::tuple" }
%"class.std::tuple" = type { %"struct.std::_Tuple_impl" }
%"struct.std::_Tuple_impl" = type { %"struct.std::_Head_base.27" }
%"struct.std::_Head_base.27" = type { ptr }
%"class.std::unique_ptr.28" = type { %"struct.std::__uniq_ptr_data.29" }
%"struct.std::__uniq_ptr_data.29" = type { %"class.std::__uniq_ptr_impl.30" }
%"class.std::__uniq_ptr_impl.30" = type { %"class.std::tuple.31" }
%"class.std::tuple.31" = type { %"struct.std::_Tuple_impl.32" }
%"struct.std::_Tuple_impl.32" = type { %"struct.std::_Head_base.35" }
%"struct.std::_Head_base.35" = type { ptr }
%"struct.std::array" = type { [32 x i8] }
%"struct.net::QuicPacketHeader" = type <{ %"struct.net::QuicPacketPublicHeader", i64, i8, i8, i8, i8, [4 x i8] }>
%"struct.net::QuicPacketPublicHeader" = type { i64, i32, i8, i8, i8, i8, %"class.std::vector.21", ptr }
%"struct.net::QuicStopWaitingFrame" = type { i8, i8, i64 }
%"class.std::deque" = type { %"class.std::_Deque_base" }
%"class.std::_Deque_base" = type { %"struct.std::_Deque_base<net::QuicEncryptedPacket *, std::allocator<net::QuicEncryptedPacket *>>::_Deque_impl" }
%"struct.std::_Deque_base<net::QuicEncryptedPacket *, std::allocator<net::QuicEncryptedPacket *>>::_Deque_impl" = type { %"struct.std::_Deque_base<net::QuicEncryptedPacket *, std::allocator<net::QuicEncryptedPacket *>>::_Deque_impl_data" }
%"struct.std::_Deque_base<net::QuicEncryptedPacket *, std::allocator<net::QuicEncryptedPacket *>>::_Deque_impl_data" = type { ptr, i64, %"struct.std::_Deque_iterator", %"struct.std::_Deque_iterator" }
%"struct.std::_Deque_iterator" = type { ptr, ptr, ptr, ptr }
%"class.std::__cxx11::list" = type { %"class.std::__cxx11::_List_base" }
%"class.std::__cxx11::_List_base" = type { %"struct.std::__cxx11::_List_base<net::SerializedPacket, std::allocator<net::SerializedPacket>>::_List_impl" }
%"struct.std::__cxx11::_List_base<net::SerializedPacket, std::allocator<net::SerializedPacket>>::_List_impl" = type { %"struct.std::__detail::_List_node_header" }
%"struct.std::__detail::_List_node_header" = type { %"struct.std::__detail::_List_node_base", i64 }
%"struct.std::__detail::_List_node_base" = type { ptr, ptr }
%"class.std::unique_ptr.42" = type { %"struct.std::__uniq_ptr_data.43" }
%"struct.std::__uniq_ptr_data.43" = type { %"class.std::__uniq_ptr_impl.44" }
%"class.std::__uniq_ptr_impl.44" = type { %"class.std::tuple.45" }
%"class.std::tuple.45" = type { %"struct.std::_Tuple_impl.46" }
%"struct.std::_Tuple_impl.46" = type { %"struct.std::_Head_base.49" }
%"struct.std::_Head_base.49" = type { ptr }
%"class.net::QuicReceivedPacketManager" = type { %"class.net::QuicReceivedEntropyHashCalculatorInterface", %"class.net::QuicReceivedPacketManager::EntropyTracker", i64, %"struct.net::QuicAckFrame", i8, %"class.net::QuicTime", ptr }
%"class.net::QuicReceivedEntropyHashCalculatorInterface" = type { ptr }
%"class.net::QuicReceivedPacketManager::EntropyTracker" = type { %"class.std::deque.50", i8, i64, i64 }
%"class.std::deque.50" = type { %"class.std::_Deque_base.51" }
%"class.std::_Deque_base.51" = type { %"struct.std::_Deque_base<std::pair<unsigned char, bool>, std::allocator<std::pair<unsigned char, bool>>>::_Deque_impl" }
%"struct.std::_Deque_base<std::pair<unsigned char, bool>, std::allocator<std::pair<unsigned char, bool>>>::_Deque_impl" = type { %"struct.std::_Deque_base<std::pair<unsigned char, bool>, std::allocator<std::pair<unsigned char, bool>>>::_Deque_impl_data" }
%"struct.std::_Deque_base<std::pair<unsigned char, bool>, std::allocator<std::pair<unsigned char, bool>>>::_Deque_impl_data" = type { ptr, i64, %"struct.std::_Deque_iterator.55", %"struct.std::_Deque_iterator.55" }
%"struct.std::_Deque_iterator.55" = type { ptr, ptr, ptr, ptr }
%"struct.net::QuicAckFrame" = type <{ i64, %"class.net::QuicTime::Delta", %"class.std::vector.56", %"class.net::PacketNumberQueue", i8, i8, i8, i8, [4 x i8] }>
%"class.std::vector.56" = type { %"struct.std::_Vector_base.57" }
%"struct.std::_Vector_base.57" = type { %"struct.std::_Vector_base<std::pair<unsigned long, net::QuicTime>, std::allocator<std::pair<unsigned long, net::QuicTime>>>::_Vector_impl" }
%"struct.std::_Vector_base<std::pair<unsigned long, net::QuicTime>, std::allocator<std::pair<unsigned long, net::QuicTime>>>::_Vector_impl" = type { %"struct.std::_Vector_base<std::pair<unsigned long, net::QuicTime>, std::allocator<std::pair<unsigned long, net::QuicTime>>>::_Vector_impl_data" }
%"struct.std::_Vector_base<std::pair<unsigned long, net::QuicTime>, std::allocator<std::pair<unsigned long, net::QuicTime>>>::_Vector_impl_data" = type { ptr, ptr, ptr }
%"class.net::PacketNumberQueue" = type { %"class.net::IntervalSet" }
%"class.net::IntervalSet" = type { %"class.std::set" }
%"class.std::set" = type { %"class.std::_Rb_tree" }
%"class.std::_Rb_tree" = type { %"struct.std::_Rb_tree<net::Interval<unsigned long>, net::Interval<unsigned long>, std::_Identity<net::Interval<unsigned long>>, net::IntervalSet<unsigned long>::IntervalComparator>::_Rb_tree_impl" }
%"struct.std::_Rb_tree<net::Interval<unsigned long>, net::Interval<unsigned long>, std::_Identity<net::Interval<unsigned long>>, net::IntervalSet<unsigned long>::IntervalComparator>::_Rb_tree_impl" = type { %"struct.std::_Rb_tree_key_compare", %"struct.std::_Rb_tree_header" }
%"struct.std::_Rb_tree_key_compare" = type { %"struct.net::IntervalSet<unsigned long>::IntervalComparator" }
%"struct.net::IntervalSet<unsigned long>::IntervalComparator" = type { i8 }
%"struct.std::_Rb_tree_header" = type { %"struct.std::_Rb_tree_node_base", i64 }
%"struct.std::_Rb_tree_node_base" = type { i32, ptr, ptr, ptr }
%"class.net::QuicSentEntropyManager" = type { ptr, %"class.std::deque.64", i64, %"struct.net::QuicSentEntropyManager::CumulativeEntropy", %"struct.net::QuicSentEntropyManager::CumulativeEntropy" }
%"class.std::deque.64" = type { %"class.std::_Deque_base.65" }
%"class.std::_Deque_base.65" = type { %"struct.std::_Deque_base<unsigned char, std::allocator<unsigned char>>::_Deque_impl" }
%"struct.std::_Deque_base<unsigned char, std::allocator<unsigned char>>::_Deque_impl" = type { %"struct.std::_Deque_base<unsigned char, std::allocator<unsigned char>>::_Deque_impl_data" }
%"struct.std::_Deque_base<unsigned char, std::allocator<unsigned char>>::_Deque_impl_data" = type { ptr, i64, %"struct.std::_Deque_iterator.66", %"struct.std::_Deque_iterator.66" }
%"struct.std::_Deque_iterator.66" = type { ptr, ptr, ptr, ptr }
%"struct.net::QuicSentEntropyManager::CumulativeEntropy" = type <{ i64, i8, [7 x i8] }>
%"class.net::QuicOneBlockArena" = type { [1024 x i8], i32, [4 x i8] }
%"class.net::QuicArenaScopedPtr" = type { ptr }
%"class.net::QuicPacketGenerator" = type { ptr, %"class.net::QuicPacketCreator", %"class.std::vector.67", i8, i8, i8, [5 x i8], %"struct.net::QuicAckFrame", %"struct.net::QuicStopWaitingFrame" }
%"class.net::QuicPacketCreator" = type { ptr, ptr, ptr, %"class.net::QuicPacketCreator::QuicRandomBoolSource", ptr, i8, i8, i8, i8, %"struct.std::array", i64, i64, i32, %"class.std::vector.67", i64, i64, %"struct.net::SerializedPacket", %"class.std::unordered_map" }
%"class.net::QuicPacketCreator::QuicRandomBoolSource" = type { ptr, i64, i64 }
%"struct.net::SerializedPacket" = type { ptr, i16, %"class.std::vector.67", i8, i16, i8, i64, i8, i8, i8, i8, i8, i8, i8, i64, %"class.std::__cxx11::list.72" }
%"class.std::__cxx11::list.72" = type { %"class.std::__cxx11::_List_base.73" }
%"class.std::__cxx11::_List_base.73" = type { %"struct.std::__cxx11::_List_base<net::AckListenerWrapper, std::allocator<net::AckListenerWrapper>>::_List_impl" }
%"struct.std::__cxx11::_List_base<net::AckListenerWrapper, std::allocator<net::AckListenerWrapper>>::_List_impl" = type { %"struct.std::__detail::_List_node_header" }
%"class.std::vector.67" = type { %"struct.std::_Vector_base.68" }
%"struct.std::_Vector_base.68" = type { %"struct.std::_Vector_base<net::QuicFrame, std::allocator<net::QuicFrame>>::_Vector_impl" }
%"struct.std::_Vector_base<net::QuicFrame, std::allocator<net::QuicFrame>>::_Vector_impl" = type { %"struct.std::_Vector_base<net::QuicFrame, std::allocator<net::QuicFrame>>::_Vector_impl_data" }
%"struct.std::_Vector_base<net::QuicFrame, std::allocator<net::QuicFrame>>::_Vector_impl_data" = type { ptr, ptr, ptr }
%"class.net::QuicTime::Delta" = type { %"class.base::TimeDelta", i64 }
%"class.base::TimeDelta" = type { i64 }
%"struct.net::QuicConnectionStats" = type { i64, i64, i64, i64, i64, i64, i64, i64, i64, i64, i64, i64, i64, i64, i64, i64, i64, i64, i64, i64, i64, i64, i64, i64, i64, %"class.net::QuicBandwidth", i64, i64, i64, i32, %"class.net::QuicTime" }
%"class.net::QuicBandwidth" = type { i64 }
%"class.std::unique_ptr.77" = type { %"struct.std::__uniq_ptr_data.78" }
%"struct.std::__uniq_ptr_data.78" = type { %"class.std::__uniq_ptr_impl.79" }
%"class.std::__uniq_ptr_impl.79" = type { %"class.std::tuple.80" }
%"class.std::tuple.80" = type { %"struct.std::_Tuple_impl.81" }
%"struct.std::_Tuple_impl.81" = type { %"struct.std::_Head_base.84" }
%"struct.std::_Head_base.84" = type { ptr }
%"class.net::IPEndPoint" = type <{ %"class.net::IPAddress", i16, [6 x i8] }>
%"class.net::IPAddress" = type { %"class.std::vector" }
%"class.std::vector" = type { %"struct.std::_Vector_base" }
%"struct.std::_Vector_base" = type { %"struct.std::_Vector_base<unsigned char, std::allocator<unsigned char>>::_Vector_impl" }
%"struct.std::_Vector_base<unsigned char, std::allocator<unsigned char>>::_Vector_impl" = type { %"struct.std::_Vector_base<unsigned char, std::allocator<unsigned char>>::_Vector_impl_data" }
%"struct.std::_Vector_base<unsigned char, std::allocator<unsigned char>>::_Vector_impl_data" = type { ptr, ptr, ptr }
%"class.std::vector.21" = type { %"struct.std::_Vector_base.22" }
%"struct.std::_Vector_base.22" = type { %"struct.std::_Vector_base<net::QuicVersion, std::allocator<net::QuicVersion>>::_Vector_impl" }
%"struct.std::_Vector_base<net::QuicVersion, std::allocator<net::QuicVersion>>::_Vector_impl" = type { %"struct.std::_Vector_base<net::QuicVersion, std::allocator<net::QuicVersion>>::_Vector_impl_data" }
%"struct.std::_Vector_base<net::QuicVersion, std::allocator<net::QuicVersion>>::_Vector_impl_data" = type { ptr, ptr, ptr }

; Function Attrs: mustprogress uwtable
define dso_local void @_ZN3net14QuicConnection17WriteIfNotBlockedEv(ptr noundef nonnull align 8 dereferenceable(3372) %this) #0 align 2 {
entry:
  %this.addr = alloca ptr, align 8
  store ptr %this, ptr %this.addr, align 8
  %this1 = load ptr, ptr %this.addr, align 8
  %writer_ = getelementptr inbounds %"class.net::QuicConnection", ptr %this1, i32 0, i32 8
  %0 = load ptr, ptr %writer_, align 8
  %vtable = load ptr, ptr %0, align 8
  %vfn = getelementptr inbounds ptr, ptr %vtable, i64 4
  %1 = load ptr, ptr %vfn, align 8
  %call = call noundef zeroext i1 %1(ptr noundef nonnull align 8 dereferenceable(8) %0)
  br i1 %call, label %if.end, label %if.then

if.then:                                          ; preds = %entry
  %vtable2 = load ptr, ptr %this1, align 8
  %vfn3 = getelementptr inbounds ptr, ptr %vtable2, i64 35
  %2 = load ptr, ptr %vfn3, align 8
  call void %2(ptr noundef nonnull align 8 dereferenceable(3372) %this1)
  br label %if.end

if.end:                                           ; preds = %if.then, %entry
  ret void
}