; Function Attrs: mustprogress uwtable
define dso_local void @_ZN3net14QuicConnection17WriteIfNotBlockedEv(ptr noundef nonnull align 8 dereferenceable(3372) %this) local_unnamed_addr #0 align 2 {
entry:
  %writer_ = getelementptr inbounds i8, ptr %this, i64 464
  %0 = load ptr, ptr %writer_, align 8
  %vtable = load ptr, ptr %0, align 8
  %vfn = getelementptr inbounds i8, ptr %vtable, i64 32
  %1 = load ptr, ptr %vfn, align 8
  %call = tail call noundef zeroext i1 %1(ptr noundef nonnull align 8 dereferenceable(8) %0)
  br i1 %call, label %if.end, label %if.then

if.then:                                          ; preds = %entry
  %vtable2 = load ptr, ptr %this, align 8
  %vfn3 = getelementptr inbounds i8, ptr %vtable2, i64 280
  %2 = load ptr, ptr %vfn3, align 8
  tail call void %2(ptr noundef nonnull align 8 dereferenceable(3372) %this)
  br label %if.end

if.end:                                           ; preds = %if.then, %entry
  ret void
}